(dp0
S'dsq'
p1
(S'13125083714'
p2
S'1198016334@qq.com'
p3
tp4
sS'jia'
p5
(S'2859253'
p6
S'none'
p7
tp8
s.(dp0
S'dsq'
p1
(S'110'
p2
S'1198016334@qq.com'
p3
tp4
sS'jia'
p5
(S'2859253'
p6
S'none'
p7
tp8
s.(dp0
S'dsq'
p1
(S'110'
p2
S'1198016334@qq.com'
p3
tp4
sS'jia'
p5
(S'2859253'
p6
S'none'
p7
tp8
s.